target datalayout = "e-m:e-p270:32:32-p271:32:32-p272:64:64-i64:64-i128:128-f80:128-n8:16:32:64-S128"
target triple = "x86_64-pc-linux-gnu"

%"class.cv::detail::tracking::online_boosting::WeakClassifierHaarFeature" = type { ptr, float, float, ptr }
%"class.cv::detail::tracking::online_boosting::EstimatedGaussDistribution" = type { ptr, float, float, float, float, float, float }
%"class.cv::detail::tracking::online_boosting::ClassifierThreshold" = type { ptr, ptr, ptr, float, i32 }

@_ZN2cv6detail8tracking15online_boosting26EstimatedGaussDistributionC1Ev = hidden unnamed_addr alias void (ptr), ptr @_ZN2cv6detail8tracking15online_boosting26EstimatedGaussDistributionC2Ev
@_ZN2cv6detail8tracking15online_boosting19ClassifierThresholdC1EPNS2_26EstimatedGaussDistributionES5_ = hidden unnamed_addr alias void (ptr, ptr, ptr), ptr @_ZN2cv6detail8tracking15online_boosting19ClassifierThresholdC2EPNS2_26EstimatedGaussDistributionES5_

; Function Attrs: mustprogress nounwind uwtable
define hidden void @_ZN2cv6detail8tracking15online_boosting26EstimatedGaussDistribution9setValuesEff(ptr noundef nonnull align 8 dereferenceable(32) %0, float noundef %1, float noundef %2) #5 align 2 {
  %4 = alloca ptr, align 8
  %5 = alloca float, align 4
  %6 = alloca float, align 4
  store ptr %0, ptr %4, align 8, !tbaa !157
  store float %1, ptr %5, align 4, !tbaa !38
  store float %2, ptr %6, align 4, !tbaa !38
  %7 = load ptr, ptr %4, align 8
  %8 = load float, ptr %5, align 4, !tbaa !38
  %9 = getelementptr inbounds nuw %"class.cv::detail::tracking::online_boosting::EstimatedGaussDistribution", ptr %7, i32 0, i32 1
  store float %8, ptr %9, align 8, !tbaa !159
  %10 = load float, ptr %6, align 4, !tbaa !38
  %11 = getelementptr inbounds nuw %"class.cv::detail::tracking::online_boosting::EstimatedGaussDistribution", ptr %7, i32 0, i32 2
  store float %10, ptr %11, align 4, !tbaa !161
  ret void
}

; Function Attrs: mustprogress nounwind uwtable
define hidden void @_ZN2cv6detail8tracking15online_boosting25WeakClassifierHaarFeature22getInitialDistributionEPNS2_26EstimatedGaussDistributionE(ptr noundef nonnull align 8 dereferenceable(24) %0, ptr noundef %1) #5 align 2 {
  %3 = alloca ptr, align 8
  %4 = alloca ptr, align 8
  store ptr %0, ptr %3, align 8, !tbaa !120
  store ptr %1, ptr %4, align 8, !tbaa !157
  %5 = load ptr, ptr %3, align 8
  %6 = load ptr, ptr %4, align 8, !tbaa !157
  %7 = getelementptr inbounds nuw %"class.cv::detail::tracking::online_boosting::WeakClassifierHaarFeature", ptr %5, i32 0, i32 2
  %8 = load float, ptr %7, align 4, !tbaa !167
  %9 = getelementptr inbounds nuw %"class.cv::detail::tracking::online_boosting::WeakClassifierHaarFeature", ptr %5, i32 0, i32 1
  %10 = load float, ptr %9, align 8, !tbaa !166
  call void @_ZN2cv6detail8tracking15online_boosting26EstimatedGaussDistribution9setValuesEff(ptr noundef nonnull align 8 dereferenceable(32) %6, float noundef %8, float noundef %10)
  ret void
}

; Function Attrs: mustprogress nounwind uwtable
define hidden noundef ptr @_ZN2cv6detail8tracking15online_boosting19ClassifierThreshold15getDistributionEi(ptr noundef nonnull align 8 dereferenceable(32) %0, i32 noundef %1) #5 align 2 {
  %3 = alloca ptr, align 8
  %4 = alloca ptr, align 8
  %5 = alloca i32, align 4
  store ptr %0, ptr %4, align 8, !tbaa !168
  store i32 %1, ptr %5, align 4, !tbaa !8
  %6 = load ptr, ptr %4, align 8
  %7 = load i32, ptr %5, align 4, !tbaa !8
  %8 = icmp eq i32 %7, 1
  br i1 %8, label %9, label %12

9:                                                ; preds = %2
  %10 = getelementptr inbounds nuw %"class.cv::detail::tracking::online_boosting::ClassifierThreshold", ptr %6, i32 0, i32 1
  %11 = load ptr, ptr %10, align 8, !tbaa !169
  store ptr %11, ptr %3, align 8
  br label %15

12:                                               ; preds = %2
  %13 = getelementptr inbounds nuw %"class.cv::detail::tracking::online_boosting::ClassifierThreshold", ptr %6, i32 0, i32 2
  %14 = load ptr, ptr %13, align 8, !tbaa !171
  store ptr %14, ptr %3, align 8
  br label %15

15:                                               ; preds = %12, %9
  %16 = load ptr, ptr %3, align 8
  ret ptr %16
}

; Function Attrs: mustprogress uwtable
define hidden void @_ZN2cv6detail8tracking15online_boosting25WeakClassifierHaarFeature24generateRandomClassifierEPNS2_26EstimatedGaussDistributionES5_(ptr noundef nonnull align 8 dereferenceable(24) %0, ptr noundef %1, ptr noundef %2) #4 align 2 personality ptr @__gxx_personality_v0 {
  %4 = alloca ptr, align 8
  %5 = alloca ptr, align 8
  %6 = alloca ptr, align 8
  %7 = alloca ptr, align 8
  %8 = alloca i32, align 4
  store ptr %0, ptr %4, align 8, !tbaa !120
  store ptr %1, ptr %5, align 8, !tbaa !157
  store ptr %2, ptr %6, align 8, !tbaa !157
  %9 = load ptr, ptr %4, align 8
  %10 = call noalias noundef nonnull ptr @_Znwm(i64 noundef 32) #18
  %11 = load ptr, ptr %5, align 8, !tbaa !157
  %12 = load ptr, ptr %6, align 8, !tbaa !157
  invoke void @_ZN2cv6detail8tracking15online_boosting19ClassifierThresholdC1EPNS2_26EstimatedGaussDistributionES5_(ptr noundef nonnull align 8 dereferenceable(32) %10, ptr noundef %11, ptr noundef %12)
          to label %13 unwind label %15

13:                                               ; preds = %3
  %14 = getelementptr inbounds nuw %"class.cv::detail::tracking::online_boosting::WeakClassifierHaarFeature", ptr %9, i32 0, i32 3
  store ptr %10, ptr %14, align 8, !tbaa !146
  ret void

15:                                               ; preds = %3
  %16 = landingpad { ptr, i32 }
          cleanup
  %17 = extractvalue { ptr, i32 } %16, 0
  store ptr %17, ptr %7, align 8
  %18 = extractvalue { ptr, i32 } %16, 1
  store i32 %18, ptr %8, align 4
  call void @_ZdlPv(ptr noundef %10) #19
  br label %19

19:                                               ; preds = %15
  %20 = load ptr, ptr %7, align 8
  %21 = load i32, ptr %8, align 4
  %22 = insertvalue { ptr, i32 } poison, ptr %20, 0
  %23 = insertvalue { ptr, i32 } %22, i32 %21, 1
  resume { ptr, i32 } %23
}

; Function Attrs: mustprogress uwtable
define hidden void @_ZN2cv6detail8tracking15online_boosting25WeakClassifierHaarFeatureC2Ev(ptr noundef nonnull align 8 dereferenceable(24) %0) unnamed_addr #4 align 2 personality ptr @__gxx_personality_v0 {
  %2 = alloca ptr, align 8
  %3 = alloca ptr, align 8
  %4 = alloca ptr, align 8
  %5 = alloca i32, align 4
  %6 = alloca ptr, align 8
  store ptr %0, ptr %2, align 8, !tbaa !120
  %7 = load ptr, ptr %2, align 8
  store ptr getelementptr inbounds inrange(-16, 16) ({ [4 x ptr] }, ptr @_ZTVN2cv6detail8tracking15online_boosting25WeakClassifierHaarFeatureE, i32 0, i32 0, i32 2), ptr %7, align 8, !tbaa !14
  %8 = getelementptr inbounds nuw %"class.cv::detail::tracking::online_boosting::WeakClassifierHaarFeature", ptr %7, i32 0, i32 1
  store float 1.000000e+00, ptr %8, align 8, !tbaa !166
  %9 = getelementptr inbounds nuw %"class.cv::detail::tracking::online_boosting::WeakClassifierHaarFeature", ptr %7, i32 0, i32 2
  store float 0.000000e+00, ptr %9, align 4, !tbaa !167
  call void @llvm.lifetime.start.p0(i64 8, ptr %3) #3
  %10 = call noalias noundef nonnull ptr @_Znwm(i64 noundef 32) #18
  invoke void @_ZN2cv6detail8tracking15online_boosting26EstimatedGaussDistributionC1Ev(ptr noundef nonnull align 8 dereferenceable(32) %10)
          to label %11 unwind label %22

11:                                               ; preds = %1
  store ptr %10, ptr %3, align 8, !tbaa !157
  call void @llvm.lifetime.start.p0(i64 8, ptr %6) #3
  %12 = call noalias noundef nonnull ptr @_Znwm(i64 noundef 32) #18
  invoke void @_ZN2cv6detail8tracking15online_boosting26EstimatedGaussDistributionC1Ev(ptr noundef nonnull align 8 dereferenceable(32) %12)
          to label %13 unwind label %26

13:                                               ; preds = %11
  store ptr %12, ptr %6, align 8, !tbaa !157
  %14 = load ptr, ptr %3, align 8, !tbaa !157
  %15 = load ptr, ptr %6, align 8, !tbaa !157
  call void @_ZN2cv6detail8tracking15online_boosting25WeakClassifierHaarFeature24generateRandomClassifierEPNS2_26EstimatedGaussDistributionES5_(ptr noundef nonnull align 8 dereferenceable(24) %7, ptr noundef %14, ptr noundef %15)
  %16 = getelementptr inbounds nuw %"class.cv::detail::tracking::online_boosting::WeakClassifierHaarFeature", ptr %7, i32 0, i32 3
  %17 = load ptr, ptr %16, align 8, !tbaa !146
  %18 = call noundef ptr @_ZN2cv6detail8tracking15online_boosting19ClassifierThreshold15getDistributionEi(ptr noundef nonnull align 8 dereferenceable(32) %17, i32 noundef -1)
  call void @_ZN2cv6detail8tracking15online_boosting25WeakClassifierHaarFeature22getInitialDistributionEPNS2_26EstimatedGaussDistributionE(ptr noundef nonnull align 8 dereferenceable(24) %7, ptr noundef %18)
  %19 = getelementptr inbounds nuw %"class.cv::detail::tracking::online_boosting::WeakClassifierHaarFeature", ptr %7, i32 0, i32 3
  %20 = load ptr, ptr %19, align 8, !tbaa !146
  %21 = call noundef ptr @_ZN2cv6detail8tracking15online_boosting19ClassifierThreshold15getDistributionEi(ptr noundef nonnull align 8 dereferenceable(32) %20, i32 noundef 1)
  call void @_ZN2cv6detail8tracking15online_boosting25WeakClassifierHaarFeature22getInitialDistributionEPNS2_26EstimatedGaussDistributionE(ptr noundef nonnull align 8 dereferenceable(24) %7, ptr noundef %21)
  call void @llvm.lifetime.end.p0(i64 8, ptr %6) #3
  call void @llvm.lifetime.end.p0(i64 8, ptr %3) #3
  ret void

22:                                               ; preds = %1
  %23 = landingpad { ptr, i32 }
          cleanup
  %24 = extractvalue { ptr, i32 } %23, 0
  store ptr %24, ptr %4, align 8
  %25 = extractvalue { ptr, i32 } %23, 1
  store i32 %25, ptr %5, align 4
  call void @_ZdlPv(ptr noundef %10) #19
  br label %30

26:                                               ; preds = %11
  %27 = landingpad { ptr, i32 }
          cleanup
  %28 = extractvalue { ptr, i32 } %27, 0
  store ptr %28, ptr %4, align 8
  %29 = extractvalue { ptr, i32 } %27, 1
  store i32 %29, ptr %5, align 4
  call void @_ZdlPv(ptr noundef %12) #19
  call void @llvm.lifetime.end.p0(i64 8, ptr %6) #3
  br label %30

30:                                               ; preds = %26, %22
  call void @llvm.lifetime.end.p0(i64 8, ptr %3) #3
  br label %31

31:                                               ; preds = %30
  %32 = load ptr, ptr %4, align 8
  %33 = load i32, ptr %5, align 4
  %34 = insertvalue { ptr, i32 } poison, ptr %32, 0
  %35 = insertvalue { ptr, i32 } %34, i32 %33, 1
  resume { ptr, i32 } %35
}