; Function Attrs: mustprogress uwtable
define hidden void @_ZN2cv6detail8tracking15online_boosting25WeakClassifierHaarFeatureC2Ev(ptr noundef nonnull writeonly align 8 captures(none) dereferenceable(24) initializes((0, 24)) %0) unnamed_addr #3 align 2 personality ptr @__gxx_personality_v0 {
  store ptr getelementptr inbounds nuw inrange(-16, 16) (i8, ptr @_ZTVN2cv6detail8tracking15online_boosting25WeakClassifierHaarFeatureE, i64 16), ptr %0, align 8, !tbaa !3
  %2 = getelementptr inbounds nuw i8, ptr %0, i64 8
  store float 1.000000e+00, ptr %2, align 8, !tbaa !139
  %3 = getelementptr inbounds nuw i8, ptr %0, i64 12
  store float 0.000000e+00, ptr %3, align 4, !tbaa !140
  %4 = tail call noalias noundef nonnull dereferenceable(32) ptr @_Znwm(i64 noundef 32) #25
  store ptr getelementptr inbounds nuw inrange(-16, 16) (i8, ptr @_ZTVN2cv6detail8tracking15online_boosting26EstimatedGaussDistributionE, i64 16), ptr %4, align 8, !tbaa !3
  %5 = getelementptr inbounds nuw i8, ptr %4, i64 8
  store float 0.000000e+00, ptr %5, align 8, !tbaa !127
  %6 = getelementptr inbounds nuw i8, ptr %4, i64 12
  store float 1.000000e+00, ptr %6, align 4, !tbaa !130
  %7 = getelementptr inbounds nuw i8, ptr %4, i64 16
  store float 1.000000e+03, ptr %7, align 8, !tbaa !124
  %8 = getelementptr inbounds nuw i8, ptr %4, i64 24
  store float 0x3F847AE140000000, ptr %8, align 8, !tbaa !126
  %9 = getelementptr inbounds nuw i8, ptr %4, i64 20
  store float 1.000000e+03, ptr %9, align 4, !tbaa !128
  %10 = getelementptr inbounds nuw i8, ptr %4, i64 28
  store float 0x3F847AE140000000, ptr %10, align 4, !tbaa !129
  %11 = tail call noalias noundef nonnull dereferenceable(32) ptr @_Znwm(i64 noundef 32) #25
  store ptr getelementptr inbounds nuw inrange(-16, 16) (i8, ptr @_ZTVN2cv6detail8tracking15online_boosting26EstimatedGaussDistributionE, i64 16), ptr %11, align 8, !tbaa !3
  %12 = getelementptr inbounds nuw i8, ptr %11, i64 8
  store float 0.000000e+00, ptr %12, align 8, !tbaa !127
  %13 = getelementptr inbounds nuw i8, ptr %11, i64 12
  store float 1.000000e+00, ptr %13, align 4, !tbaa !130
  %14 = getelementptr inbounds nuw i8, ptr %11, i64 16
  store float 1.000000e+03, ptr %14, align 8, !tbaa !124
  %15 = getelementptr inbounds nuw i8, ptr %11, i64 24
  store float 0x3F847AE140000000, ptr %15, align 8, !tbaa !126
  %16 = getelementptr inbounds nuw i8, ptr %11, i64 20
  store float 1.000000e+03, ptr %16, align 4, !tbaa !128
  %17 = getelementptr inbounds nuw i8, ptr %11, i64 28
  store float 0x3F847AE140000000, ptr %17, align 4, !tbaa !129
  %18 = tail call noalias noundef nonnull dereferenceable(32) ptr @_Znwm(i64 noundef 32) #25
  store ptr getelementptr inbounds nuw inrange(-16, 16) (i8, ptr @_ZTVN2cv6detail8tracking15online_boosting19ClassifierThresholdE, i64 16), ptr %18, align 8, !tbaa !3
  %19 = getelementptr inbounds nuw i8, ptr %18, i64 8
  store ptr %4, ptr %19, align 8, !tbaa !123
  %20 = getelementptr inbounds nuw i8, ptr %18, i64 16
  store ptr %11, ptr %20, align 8, !tbaa !131
  %21 = getelementptr inbounds nuw i8, ptr %18, i64 24
  store float 0.000000e+00, ptr %21, align 8, !tbaa !89
  %22 = getelementptr inbounds nuw i8, ptr %18, i64 28
  store i32 0, ptr %22, align 4, !tbaa !86
  %23 = getelementptr inbounds nuw i8, ptr %0, i64 16
  store ptr %18, ptr %23, align 8, !tbaa !83
  store float 0.000000e+00, ptr %12, align 8, !tbaa !127
  store float 1.000000e+00, ptr %13, align 4, !tbaa !130
  store float 0.000000e+00, ptr %5, align 8, !tbaa !127
  store float 1.000000e+00, ptr %6, align 4, !tbaa !130
  ret void
}